target datalayout = "e-m:e-p270:32:32-p271:32:32-p272:64:64-i64:64-i128:128-f80:128-n8:16:32:64-S128"
target triple = "x86_64-pc-linux-gnu"

%struct.CVodeMemRec = type { double, ptr, ptr, i32, i32, i32, double, double, ptr, i32, ptr, ptr, i32, ptr, i32, i32, double, double, ptr, i32, i32, i32, ptr, ptr, ptr, i32, i32, ptr, ptr, ptr, i32, double, i32, i32, double, ptr, ptr, i32, ptr, ptr, i32, i32, i32, double, ptr, ptr, [13 x ptr], ptr, ptr, ptr, ptr, ptr, [13 x ptr], ptr, ptr, ptr, ptr, [13 x ptr], ptr, ptr, ptr, ptr, ptr, i32, [13 x ptr], ptr, ptr, ptr, ptr, ptr, i32, double, i32, i32, i32, i32, i32, double, double, double, double, double, double, double, double, [14 x double], [6 x double], [13 x double], double, double, double, double, double, double, double, double, double, double, double, i32, ptr, i32, i64, i32, i32, i32, i32, i32, double, double, double, i64, i64, i64, i64, i64, i64, i64, i64, i64, ptr, i64, i64, ptr, i64, i64, i64, i64, i64, i64, i32, i64, i64, i64, i64, i64, i64, double, double, double, ptr, ptr, ptr, ptr, ptr, i32, i32, i64, double, double, double, i32, double, i32, i32, i32, i32, i32, i32, i32, i32, i32, i32, i32, i32, i32, i32, i32, i32, ptr, ptr, ptr, i32, [6 x [4 x double]], i32, i64, ptr, i32, ptr, ptr, double, double, double, ptr, ptr, ptr, double, double, i32, i32, i64, ptr, i32, i32, ptr, i32 }

@.str = private unnamed_addr constant [7 x i8] c"CVODES\00", align 1
@.str.2 = private unnamed_addr constant [26 x i8] c"cvode_mem = NULL illegal.\00", align 1
@.str.36 = private unnamed_addr constant [44 x i8] c"Forward sensitivity analysis not activated.\00", align 1
@.str.81 = private unnamed_addr constant [39 x i8] c"CVodeGetStgrSensNumNonlinSolvConvFails\00", align 1

; Function Attrs: nounwind uwtable
define i32 @CVodeGetStgrSensNumNonlinSolvConvFails(ptr noundef %0, ptr noundef %1) #0 {
  %3 = alloca i32, align 4
  %4 = alloca ptr, align 8
  %5 = alloca ptr, align 8
  %6 = alloca ptr, align 8
  %7 = alloca i32, align 4
  %8 = alloca i32, align 4
  %9 = alloca i32, align 4
  store ptr %0, ptr %4, align 8, !tbaa !3
  store ptr %1, ptr %5, align 8, !tbaa !72
  call void @llvm.lifetime.start.p0(i64 8, ptr %6) #5
  call void @llvm.lifetime.start.p0(i64 4, ptr %7) #5
  call void @llvm.lifetime.start.p0(i64 4, ptr %8) #5
  %10 = load ptr, ptr %4, align 8, !tbaa !3
  %11 = icmp eq ptr %10, null
  br i1 %11, label %12, label %13

12:                                               ; preds = %2
  call void (ptr, i32, ptr, ptr, ptr, ...) @cvProcessError(ptr noundef null, i32 noundef -21, ptr noundef @.str, ptr noundef @.str.81, ptr noundef @.str.2)
  store i32 -21, ptr %3, align 4
  store i32 1, ptr %9, align 4
  br label %51

13:                                               ; preds = %2
  %14 = load ptr, ptr %4, align 8, !tbaa !3
  store ptr %14, ptr %6, align 8, !tbaa !7
  %15 = load ptr, ptr %6, align 8, !tbaa !7
  %16 = getelementptr inbounds nuw %struct.CVodeMemRec, ptr %15, i32 0, i32 20
  %17 = load i32, ptr %16, align 4, !tbaa !62
  store i32 %17, ptr %8, align 4, !tbaa !24
  %18 = load ptr, ptr %6, align 8, !tbaa !7
  %19 = getelementptr inbounds nuw %struct.CVodeMemRec, ptr %18, i32 0, i32 19
  %20 = load i32, ptr %19, align 8, !tbaa !103
  %21 = icmp eq i32 %20, 0
  br i1 %21, label %22, label %24

22:                                               ; preds = %13
  %23 = load ptr, ptr %6, align 8, !tbaa !7
  call void (ptr, i32, ptr, ptr, ptr, ...) @cvProcessError(ptr noundef %23, i32 noundef -40, ptr noundef @.str, ptr noundef @.str.81, ptr noundef @.str.36)
  store i32 -40, ptr %3, align 4
  store i32 1, ptr %9, align 4
  br label %51

24:                                               ; preds = %13
  %25 = load ptr, ptr %6, align 8, !tbaa !7
  %26 = getelementptr inbounds nuw %struct.CVodeMemRec, ptr %25, i32 0, i32 21
  %27 = load i32, ptr %26, align 8, !tbaa !112
  %28 = icmp eq i32 %27, 3
  br i1 %28, label %29, label %50

29:                                               ; preds = %24
  store i32 0, ptr %7, align 4, !tbaa !24
  br label %30

30:                                               ; preds = %46, %29
  %31 = load i32, ptr %7, align 4, !tbaa !24
  %32 = load i32, ptr %8, align 4, !tbaa !24
  %33 = icmp slt i32 %31, %32
  br i1 %33, label %34, label %49

34:                                               ; preds = %30
  %35 = load ptr, ptr %6, align 8, !tbaa !7
  %36 = getelementptr inbounds nuw %struct.CVodeMemRec, ptr %35, i32 0, i32 120
  %37 = load ptr, ptr %36, align 8, !tbaa !115
  %38 = load i32, ptr %7, align 4, !tbaa !24
  %39 = sext i32 %38 to i64
  %40 = getelementptr inbounds i64, ptr %37, i64 %39
  %41 = load i64, ptr %40, align 8, !tbaa !31
  %42 = load ptr, ptr %5, align 8, !tbaa !72
  %43 = load i32, ptr %7, align 4, !tbaa !24
  %44 = sext i32 %43 to i64
  %45 = getelementptr inbounds i64, ptr %42, i64 %44
  store i64 %41, ptr %45, align 8, !tbaa !31
  br label %46

46:                                               ; preds = %34
  %47 = load i32, ptr %7, align 4, !tbaa !24
  %48 = add nsw i32 %47, 1
  store i32 %48, ptr %7, align 4, !tbaa !24
  br label %30, !llvm.loop !116

49:                                               ; preds = %30
  br label %50

50:                                               ; preds = %49, %24
  store i32 0, ptr %3, align 4
  store i32 1, ptr %9, align 4
  br label %51

51:                                               ; preds = %50, %22, %12
  call void @llvm.lifetime.end.p0(i64 4, ptr %8) #5
  call void @llvm.lifetime.end.p0(i64 4, ptr %7) #5
  call void @llvm.lifetime.end.p0(i64 8, ptr %6) #5
  %52 = load i32, ptr %3, align 4
  ret i32 %52
}